; Function Attrs: mustprogress uwtable
define hidden void @_ZN6google8protobuf8internal15ThreadSafeArena11CleanupListEv(ptr noundef nonnull readonly align 8 captures(none) dereferenceable(32) %0) local_unnamed_addr #6 align 2 personality ptr @__gxx_personality_v0 {
  %2 = getelementptr inbounds nuw i8, ptr %0, i64 16
  %3 = load atomic i64, ptr %2 monotonic, align 8
  %.not6.i = icmp eq i64 %3, 0
  br i1 %.not6.i, label %"_ZN6google8protobuf8internal15ThreadSafeArena14PerSerialArenaIZNS2_11CleanupListEvE3$_0EEvT_.exit", label %.lr.ph.preheader.i

.lr.ph.preheader.i:                               ; preds = %1
  %.0.i.i.i = inttoptr i64 %3 to ptr
  br label %.lr.ph.i

.lr.ph.i:                                         ; preds = %"_ZZN6google8protobuf8internal15ThreadSafeArena11CleanupListEvENK3$_0clEPNS1_11SerialArenaE.exit.i", %.lr.ph.preheader.i
  %.07.i = phi ptr [ %26, %"_ZZN6google8protobuf8internal15ThreadSafeArena11CleanupListEvENK3$_0clEPNS1_11SerialArenaE.exit.i" ], [ %.0.i.i.i, %.lr.ph.preheader.i ]
  %4 = getelementptr i8, ptr %.07.i, i64 8
  %.0.val.i = load ptr, ptr %4, align 8, !tbaa !21
  %5 = getelementptr i8, ptr %.07.i, i64 48
  %.0.val4.i = load ptr, ptr %5, align 8, !tbaa !23
  %6 = getelementptr inbounds nuw i8, ptr %.0.val.i, i64 16
  store ptr %.0.val4.i, ptr %6, align 8, !tbaa !12
  br label %7

7:                                                ; preds = %.loopexit.i.i.i, %.lr.ph.i
  %.0.i.i5.i = phi ptr [ %.0.val.i, %.lr.ph.i ], [ %24, %.loopexit.i.i.i ]
  %8 = getelementptr inbounds nuw i8, ptr %.0.i.i5.i, i64 8
  %9 = load i64, ptr %8, align 8, !tbaa !11
  %10 = and i64 %9, -8
  %11 = getelementptr inbounds nuw i8, ptr %.0.i.i5.i, i64 %10
  %12 = getelementptr inbounds nuw i8, ptr %.0.i.i5.i, i64 16
  %13 = load ptr, ptr %12, align 8, !tbaa !12
  %14 = ptrtoint ptr %11 to i64
  %15 = ptrtoint ptr %13 to i64
  %16 = sub i64 %14, %15
  %17 = icmp sgt i64 %16, 0
  %18 = icmp ult ptr %13, %11
  %or.cond.i.i.i = and i1 %18, %17
  br i1 %or.cond.i.i.i, label %.lr.ph.i.i.i, label %.loopexit.i.i.i

.lr.ph.i.i.i:                                     ; preds = %7, %.lr.ph.i.i.i
  %.01416.i.i.i = phi ptr [ %22, %.lr.ph.i.i.i ], [ %13, %7 ]
  %19 = getelementptr inbounds nuw i8, ptr %.01416.i.i.i, i64 8
  %20 = load ptr, ptr %19, align 8, !tbaa !26
  %21 = load ptr, ptr %.01416.i.i.i, align 8, !tbaa !28
  tail call void %20(ptr noundef %21)
  %22 = getelementptr inbounds nuw i8, ptr %.01416.i.i.i, i64 16
  %23 = icmp ult ptr %22, %11
  br i1 %23, label %.lr.ph.i.i.i, label %.loopexit.i.i.i, !llvm.loop !29

.loopexit.i.i.i:                                  ; preds = %.lr.ph.i.i.i, %7
  %24 = load ptr, ptr %.0.i.i5.i, align 8, !tbaa !3
  %.not.i.i.i = icmp eq ptr %24, null
  br i1 %.not.i.i.i, label %"_ZZN6google8protobuf8internal15ThreadSafeArena11CleanupListEvENK3$_0clEPNS1_11SerialArenaE.exit.i", label %7, !llvm.loop !31

"_ZZN6google8protobuf8internal15ThreadSafeArena11CleanupListEvENK3$_0clEPNS1_11SerialArenaE.exit.i": ; preds = %.loopexit.i.i.i
  %25 = getelementptr inbounds nuw i8, ptr %.07.i, i64 16
  %26 = load ptr, ptr %25, align 8, !tbaa !41
  %.not.i = icmp eq ptr %26, null
  br i1 %.not.i, label %"_ZN6google8protobuf8internal15ThreadSafeArena14PerSerialArenaIZNS2_11CleanupListEvE3$_0EEvT_.exit", label %.lr.ph.i, !llvm.loop !55

"_ZN6google8protobuf8internal15ThreadSafeArena14PerSerialArenaIZNS2_11CleanupListEvE3$_0EEvT_.exit": ; preds = %"_ZZN6google8protobuf8internal15ThreadSafeArena11CleanupListEvENK3$_0clEPNS1_11SerialArenaE.exit.i", %1
  ret void
}